; Function Attrs: mustprogress uwtable
define noundef i32 @_ZN28colvarbias_restraint_centers20change_configurationERKNSt7__cxx1112basic_stringIcSt11char_traitsIcESaIcEEE(ptr noundef nonnull align 8 dereferenceable(32) %0, ptr noundef nonnull align 8 dereferenceable(32) %1) unnamed_addr #4 align 2 {
  %3 = load ptr, ptr %0, align 8
  %4 = getelementptr i8, ptr %3, i64 -32
  %5 = load i64, ptr %4, align 8
  %6 = getelementptr inbounds i8, ptr %0, i64 %5
  %7 = getelementptr inbounds i8, ptr %0, i64 8
  %8 = tail call noundef zeroext i1 @_ZN11colvarparse10get_keyvalERKNSt7__cxx1112basic_stringIcSt11char_traitsIcESaIcEEEPKcRSt6vectorI11colvarvalueSaISB_EERKSD_NS_10Parse_ModeE(ptr noundef nonnull align 8 dereferenceable(320) %6, ptr noundef nonnull align 8 dereferenceable(32) %1, ptr noundef nonnull @.str.10, ptr noundef nonnull align 8 dereferenceable(24) %7, ptr noundef nonnull align 8 dereferenceable(24) %7, i32 noundef 131078)
  br i1 %8, label %.preheader, label %.loopexit

.preheader:                                       ; preds = %2
  %9 = load ptr, ptr %0, align 8
  %10 = getelementptr i8, ptr %9, i64 -24
  %11 = load i64, ptr %10, align 8
  %12 = getelementptr inbounds i8, ptr %0, i64 %11
  %13 = getelementptr inbounds i8, ptr %12, i64 152
  %14 = getelementptr inbounds i8, ptr %12, i64 160
  %15 = load ptr, ptr %14, align 8
  %16 = load ptr, ptr %13, align 8
  %.not = icmp eq ptr %15, %16
  br i1 %.not, label %.loopexit, label %.lr.ph

.lr.ph:                                           ; preds = %.preheader, %.lr.ph
  %17 = phi ptr [ %34, %.lr.ph ], [ %16, %.preheader ]
  %.06 = phi i64 [ %26, %.lr.ph ], [ 0, %.preheader ]
  %18 = load ptr, ptr %7, align 8
  %19 = getelementptr inbounds %class.colvarvalue, ptr %18, i64 %.06
  %sext = shl i64 %.06, 32
  %20 = ashr exact i64 %sext, 32
  %21 = getelementptr inbounds ptr, ptr %17, i64 %20
  %22 = load ptr, ptr %21, align 8
  %23 = getelementptr inbounds i8, ptr %22, i64 672
  tail call void @_ZN11colvarvalue4typeERKS_(ptr noundef nonnull align 8 dereferenceable(168) %19, ptr noundef nonnull align 8 dereferenceable(168) %23)
  %24 = load ptr, ptr %7, align 8
  %25 = getelementptr inbounds %class.colvarvalue, ptr %24, i64 %.06
  tail call void @_ZN11colvarvalue17apply_constraintsEv(ptr noundef nonnull align 8 dereferenceable(168) %25)
  %26 = add nuw i64 %.06, 1
  %27 = load ptr, ptr %0, align 8
  %28 = getelementptr i8, ptr %27, i64 -24
  %29 = load i64, ptr %28, align 8
  %30 = getelementptr inbounds i8, ptr %0, i64 %29
  %31 = getelementptr inbounds i8, ptr %30, i64 152
  %32 = getelementptr inbounds i8, ptr %30, i64 160
  %33 = load ptr, ptr %32, align 8
  %34 = load ptr, ptr %31, align 8
  %35 = ptrtoint ptr %33 to i64
  %36 = ptrtoint ptr %34 to i64
  %37 = sub i64 %35, %36
  %38 = ashr exact i64 %37, 3
  %39 = icmp ult i64 %26, %38
  br i1 %39, label %.lr.ph, label %.loopexit, !llvm.loop !13

.loopexit:                                        ; preds = %.lr.ph, %.preheader, %2
  ret i32 0
}